target datalayout = "e-m:e-p270:32:32-p271:32:32-p272:64:64-i64:64-i128:128-f80:128-n8:16:32:64-S128"
target triple = "x86_64-pc-linux-gnu"

%struct.evthread_lock_callbacks = type { i32, i32, ptr, ptr, ptr, ptr }
%struct.event = type { %struct.event_callback, %union.anon.0, i32, i16, i16, ptr, %union.anon.2, %struct.timeval }
%struct.event_callback = type { %struct.anon, i16, i8, i8, %union.anon, ptr }
%struct.anon = type { ptr, ptr }
%union.anon = type { ptr }
%union.anon.0 = type { %struct.anon.1 }
%struct.anon.1 = type { ptr, ptr }
%union.anon.2 = type { %struct.anon.3 }
%struct.anon.3 = type { %struct.anon.4, %struct.timeval }
%struct.anon.4 = type { ptr, ptr }
%struct.timeval = type { i64, i64 }
%struct.sockaddr_storage = type { i16, [118 x i8], i64 }
%struct.evdns_base = type { ptr, ptr, ptr, i32, ptr, i32, i32, i32, i32, %struct.timeval, i32, i32, i32, i32, i16, %struct.timeval, i16, %struct.timeval, %struct.sockaddr_storage, i32, %struct.timeval, i32, i32, i32, i32, i32, i32, ptr, %struct.hosts_list, %struct.evdns_tree, ptr, i32, i32, i32, i32 }
%struct.hosts_list = type { ptr, ptr }
%struct.evdns_tree = type { ptr }
%struct.addrinfo = type { i32, i32, i32, i32, i32, ptr, ptr, ptr }
%struct.evdns_getaddrinfo_request = type { ptr, %struct.addrinfo, ptr, ptr, ptr, i16, %struct.getaddrinfo_subrequest, %struct.getaddrinfo_subrequest, ptr, ptr, i32, %struct.event, i32, i8 }
%struct.getaddrinfo_subrequest = type { ptr, i32 }

@evthread_lock_fns_ = external global %struct.evthread_lock_callbacks, align 8

; Function Attrs: nounwind uwtable
define void @evdns_getaddrinfo_cancel(ptr noundef %0) #0 {
  %2 = alloca ptr, align 8
  store ptr %0, ptr %2, align 8
  br label %3

3:                                                ; preds = %1
  %4 = load ptr, ptr %2, align 8
  %5 = getelementptr inbounds nuw %struct.evdns_getaddrinfo_request, ptr %4, i32 0, i32 0
  %6 = load ptr, ptr %5, align 8
  %7 = getelementptr inbounds nuw %struct.evdns_base, ptr %6, i32 0, i32 30
  %8 = load ptr, ptr %7, align 8
  %9 = icmp ne ptr %8, null
  br i1 %9, label %10, label %18

10:                                               ; preds = %3
  %11 = load ptr, ptr getelementptr inbounds nuw (%struct.evthread_lock_callbacks, ptr @evthread_lock_fns_, i32 0, i32 4), align 8
  %12 = load ptr, ptr %2, align 8
  %13 = getelementptr inbounds nuw %struct.evdns_getaddrinfo_request, ptr %12, i32 0, i32 0
  %14 = load ptr, ptr %13, align 8
  %15 = getelementptr inbounds nuw %struct.evdns_base, ptr %14, i32 0, i32 30
  %16 = load ptr, ptr %15, align 8
  %17 = call i32 %11(i32 noundef 0, ptr noundef %16)
  br label %18

18:                                               ; preds = %10, %3
  br label %19

19:                                               ; preds = %18
  %20 = load ptr, ptr %2, align 8
  %21 = getelementptr inbounds nuw %struct.evdns_getaddrinfo_request, ptr %20, i32 0, i32 13
  %22 = load i8, ptr %21, align 4
  %23 = lshr i8 %22, 1
  %24 = and i8 %23, 1
  %25 = zext i8 %24 to i32
  %26 = icmp ne i32 %25, 0
  br i1 %26, label %27, label %45

27:                                               ; preds = %19
  br label %28

28:                                               ; preds = %27
  %29 = load ptr, ptr %2, align 8
  %30 = getelementptr inbounds nuw %struct.evdns_getaddrinfo_request, ptr %29, i32 0, i32 0
  %31 = load ptr, ptr %30, align 8
  %32 = getelementptr inbounds nuw %struct.evdns_base, ptr %31, i32 0, i32 30
  %33 = load ptr, ptr %32, align 8
  %34 = icmp ne ptr %33, null
  br i1 %34, label %35, label %43

35:                                               ; preds = %28
  %36 = load ptr, ptr getelementptr inbounds nuw (%struct.evthread_lock_callbacks, ptr @evthread_lock_fns_, i32 0, i32 5), align 8
  %37 = load ptr, ptr %2, align 8
  %38 = getelementptr inbounds nuw %struct.evdns_getaddrinfo_request, ptr %37, i32 0, i32 0
  %39 = load ptr, ptr %38, align 8
  %40 = getelementptr inbounds nuw %struct.evdns_base, ptr %39, i32 0, i32 30
  %41 = load ptr, ptr %40, align 8
  %42 = call i32 %36(i32 noundef 0, ptr noundef %41)
  br label %43

43:                                               ; preds = %35, %28
  br label %44

44:                                               ; preds = %43
  br label %98

45:                                               ; preds = %19
  %46 = load ptr, ptr %2, align 8
  %47 = getelementptr inbounds nuw %struct.evdns_getaddrinfo_request, ptr %46, i32 0, i32 11
  %48 = call i32 @event_del(ptr noundef %47)
  %49 = load ptr, ptr %2, align 8
  %50 = getelementptr inbounds nuw %struct.evdns_getaddrinfo_request, ptr %49, i32 0, i32 13
  %51 = load i8, ptr %50, align 4
  %52 = and i8 %51, -2
  %53 = or i8 %52, 1
  store i8 %53, ptr %50, align 4
  %54 = load ptr, ptr %2, align 8
  %55 = getelementptr inbounds nuw %struct.evdns_getaddrinfo_request, ptr %54, i32 0, i32 6
  %56 = getelementptr inbounds nuw %struct.getaddrinfo_subrequest, ptr %55, i32 0, i32 0
  %57 = load ptr, ptr %56, align 8
  %58 = icmp ne ptr %57, null
  br i1 %58, label %59, label %67

59:                                               ; preds = %45
  %60 = load ptr, ptr %2, align 8
  %61 = getelementptr inbounds nuw %struct.evdns_getaddrinfo_request, ptr %60, i32 0, i32 0
  %62 = load ptr, ptr %61, align 8
  %63 = load ptr, ptr %2, align 8
  %64 = getelementptr inbounds nuw %struct.evdns_getaddrinfo_request, ptr %63, i32 0, i32 6
  %65 = getelementptr inbounds nuw %struct.getaddrinfo_subrequest, ptr %64, i32 0, i32 0
  %66 = load ptr, ptr %65, align 8
  call void @evdns_cancel_request(ptr noundef %62, ptr noundef %66)
  br label %67

67:                                               ; preds = %59, %45
  %68 = load ptr, ptr %2, align 8
  %69 = getelementptr inbounds nuw %struct.evdns_getaddrinfo_request, ptr %68, i32 0, i32 7
  %70 = getelementptr inbounds nuw %struct.getaddrinfo_subrequest, ptr %69, i32 0, i32 0
  %71 = load ptr, ptr %70, align 8
  %72 = icmp ne ptr %71, null
  br i1 %72, label %73, label %81

73:                                               ; preds = %67
  %74 = load ptr, ptr %2, align 8
  %75 = getelementptr inbounds nuw %struct.evdns_getaddrinfo_request, ptr %74, i32 0, i32 0
  %76 = load ptr, ptr %75, align 8
  %77 = load ptr, ptr %2, align 8
  %78 = getelementptr inbounds nuw %struct.evdns_getaddrinfo_request, ptr %77, i32 0, i32 7
  %79 = getelementptr inbounds nuw %struct.getaddrinfo_subrequest, ptr %78, i32 0, i32 0
  %80 = load ptr, ptr %79, align 8
  call void @evdns_cancel_request(ptr noundef %76, ptr noundef %80)
  br label %81

81:                                               ; preds = %73, %67
  br label %82

82:                                               ; preds = %81
  %83 = load ptr, ptr %2, align 8
  %84 = getelementptr inbounds nuw %struct.evdns_getaddrinfo_request, ptr %83, i32 0, i32 0
  %85 = load ptr, ptr %84, align 8
  %86 = getelementptr inbounds nuw %struct.evdns_base, ptr %85, i32 0, i32 30
  %87 = load ptr, ptr %86, align 8
  %88 = icmp ne ptr %87, null
  br i1 %88, label %89, label %97

89:                                               ; preds = %82
  %90 = load ptr, ptr getelementptr inbounds nuw (%struct.evthread_lock_callbacks, ptr @evthread_lock_fns_, i32 0, i32 5), align 8
  %91 = load ptr, ptr %2, align 8
  %92 = getelementptr inbounds nuw %struct.evdns_getaddrinfo_request, ptr %91, i32 0, i32 0
  %93 = load ptr, ptr %92, align 8
  %94 = getelementptr inbounds nuw %struct.evdns_base, ptr %93, i32 0, i32 30
  %95 = load ptr, ptr %94, align 8
  %96 = call i32 %90(i32 noundef 0, ptr noundef %95)
  br label %97

97:                                               ; preds = %89, %82
  br label %98

98:                                               ; preds = %44, %97
  ret void
}