; Function Attrs: nounwind uwtable
define void @evdns_getaddrinfo_cancel(ptr noundef %0) #2 {
  %2 = load ptr, ptr %0, align 8
  %3 = getelementptr inbounds nuw i8, ptr %2, i64 344
  %4 = load ptr, ptr %3, align 8
  %.not = icmp eq ptr %4, null
  br i1 %.not, label %8, label %5

5:                                                ; preds = %1
  %6 = load ptr, ptr getelementptr inbounds nuw (i8, ptr @evthread_lock_fns_, i64 24), align 8
  %7 = tail call i32 %6(i32 noundef 0, ptr noundef nonnull %4) #21
  br label %8

8:                                                ; preds = %1, %5
  %9 = getelementptr inbounds nuw i8, ptr %0, i64 268
  %10 = load i8, ptr %9, align 4
  %11 = and i8 %10, 2
  %.not19 = icmp eq i8 %11, 0
  br i1 %.not19, label %16, label %12

12:                                               ; preds = %8
  %13 = load ptr, ptr %0, align 8
  %14 = getelementptr inbounds nuw i8, ptr %13, i64 344
  %15 = load ptr, ptr %14, align 8
  %.not23 = icmp eq ptr %15, null
  br i1 %.not23, label %36, label %.sink.split

16:                                               ; preds = %8
  %17 = getelementptr inbounds nuw i8, ptr %0, i64 144
  %18 = tail call i32 @event_del(ptr noundef nonnull %17) #21
  %19 = load i8, ptr %9, align 4
  %20 = or i8 %19, 1
  store i8 %20, ptr %9, align 4
  %21 = getelementptr inbounds nuw i8, ptr %0, i64 88
  %22 = load ptr, ptr %21, align 8
  %.not20 = icmp eq ptr %22, null
  br i1 %.not20, label %25, label %23

23:                                               ; preds = %16
  %24 = load ptr, ptr %0, align 8
  tail call void @evdns_cancel_request(ptr noundef %24, ptr noundef nonnull %22)
  br label %25

25:                                               ; preds = %23, %16
  %26 = getelementptr inbounds nuw i8, ptr %0, i64 104
  %27 = load ptr, ptr %26, align 8
  %.not21 = icmp eq ptr %27, null
  br i1 %.not21, label %30, label %28

28:                                               ; preds = %25
  %29 = load ptr, ptr %0, align 8
  tail call void @evdns_cancel_request(ptr noundef %29, ptr noundef nonnull %27)
  br label %30

30:                                               ; preds = %25, %28
  %31 = load ptr, ptr %0, align 8
  %32 = getelementptr inbounds nuw i8, ptr %31, i64 344
  %33 = load ptr, ptr %32, align 8
  %.not22 = icmp eq ptr %33, null
  br i1 %.not22, label %36, label %.sink.split

.sink.split:                                      ; preds = %30, %12
  %.sink = phi ptr [ %15, %12 ], [ %33, %30 ]
  %34 = load ptr, ptr getelementptr inbounds nuw (i8, ptr @evthread_lock_fns_, i64 32), align 8
  %35 = tail call i32 %34(i32 noundef 0, ptr noundef nonnull %.sink) #21
  br label %36

36:                                               ; preds = %.sink.split, %30, %12
  ret void
}